target datalayout = "e-m:e-p270:32:32-p271:32:32-p272:64:64-i64:64-i128:128-f80:128-n8:16:32:64-S128"
target triple = "x86_64-pc-linux-gnu"

%union.anon.15 = type { double }

@rb_cComplex = dso_local global i64 0, align 8

; Function Attrs: inlinehint nounwind sspstrong uwtable
define internal i64 @RUBY_BIT_ROTL(i64 noundef %0, i32 noundef %1) #3 {
  %3 = alloca i64, align 8
  %4 = alloca i32, align 4
  store i64 %0, ptr %3, align 8, !tbaa !13
  store i32 %1, ptr %4, align 4, !tbaa !11
  %5 = load i64, ptr %3, align 8, !tbaa !13
  %6 = load i32, ptr %4, align 4, !tbaa !11
  %7 = sext i32 %6 to i64
  %8 = call i64 @llvm.fshl.i64(i64 %5, i64 %5, i64 %7)
  ret i64 %8
}

; Function Attrs: nounwind sspstrong uwtable
define dso_local i64 @rb_complex_new(i64 noundef %0, i64 noundef %1) #0 {
  %3 = alloca i64, align 8
  %4 = alloca i64, align 8
  store i64 %0, ptr %3, align 8, !tbaa !13
  store i64 %1, ptr %4, align 8, !tbaa !13
  %5 = load i64, ptr @rb_cComplex, align 8, !tbaa !13
  %6 = load i64, ptr %3, align 8, !tbaa !13
  %7 = load i64, ptr %4, align 8, !tbaa !13
  %8 = call i64 @nucomp_s_canonicalize_internal(i64 noundef %5, i64 noundef %6, i64 noundef %7)
  ret i64 %8
}

; Function Attrs: inlinehint nounwind sspstrong uwtable
define internal i64 @rb_float_new_inline(double noundef %0) #3 {
  %2 = alloca i64, align 8
  %3 = alloca double, align 8
  %4 = alloca %union.anon.15, align 8
  %5 = alloca i32, align 4
  %6 = alloca i32, align 4
  store double %0, ptr %3, align 8, !tbaa !7
  call void @llvm.lifetime.start.p0(i64 8, ptr %4) #23
  call void @llvm.lifetime.start.p0(i64 4, ptr %5) #23
  %7 = load double, ptr %3, align 8, !tbaa !7
  store double %7, ptr %4, align 8, !tbaa !15
  %8 = load i64, ptr %4, align 8, !tbaa !15
  %9 = lshr i64 %8, 60
  %10 = and i64 %9, 7
  %11 = trunc i64 %10 to i32
  store i32 %11, ptr %5, align 4, !tbaa !11
  %12 = load i64, ptr %4, align 8, !tbaa !15
  %13 = icmp ne i64 %12, 3458764513820540928
  br i1 %13, label %14, label %24

14:                                               ; preds = %1
  %15 = load i32, ptr %5, align 4, !tbaa !11
  %16 = sub i32 %15, 3
  %17 = and i32 %16, -2
  %18 = icmp ne i32 %17, 0
  br i1 %18, label %24, label %19

19:                                               ; preds = %14
  %20 = load i64, ptr %4, align 8, !tbaa !15
  %21 = call i64 @RUBY_BIT_ROTL(i64 noundef %20, i32 noundef 3)
  %22 = and i64 %21, -2
  %23 = or i64 %22, 2
  store i64 %23, ptr %2, align 8
  store i32 1, ptr %6, align 4
  br label %32

24:                                               ; preds = %14, %1
  %25 = load i64, ptr %4, align 8, !tbaa !15
  %26 = icmp eq i64 %25, 0
  br i1 %26, label %27, label %28

27:                                               ; preds = %24
  store i64 -9223372036854775806, ptr %2, align 8
  store i32 1, ptr %6, align 4
  br label %32

28:                                               ; preds = %24
  br label %29

29:                                               ; preds = %28
  %30 = load double, ptr %3, align 8, !tbaa !7
  %31 = call i64 @rb_float_new_in_heap(double noundef %30)
  store i64 %31, ptr %2, align 8
  store i32 1, ptr %6, align 4
  br label %32

32:                                               ; preds = %29, %27, %19
  call void @llvm.lifetime.end.p0(i64 4, ptr %5) #23
  call void @llvm.lifetime.end.p0(i64 8, ptr %4) #23
  %33 = load i64, ptr %2, align 8
  ret i64 %33
}

; Function Attrs: nounwind sspstrong uwtable
define hidden i64 @rb_dbl_complex_new_polar_pi(double noundef %0, double noundef %1) #0 {
  %3 = alloca i64, align 8
  %4 = alloca double, align 8
  %5 = alloca double, align 8
  %6 = alloca double, align 8
  %7 = alloca double, align 8
  %8 = alloca i32, align 4
  %9 = alloca i32, align 4
  %10 = alloca double, align 8
  %11 = alloca double, align 8
  store double %0, ptr %4, align 8, !tbaa !7
  store double %1, ptr %5, align 8, !tbaa !7
  call void @llvm.lifetime.start.p0(i64 8, ptr %6) #23
  call void @llvm.lifetime.start.p0(i64 8, ptr %7) #23
  %12 = load double, ptr %5, align 8, !tbaa !7
  %13 = call double @modf(double noundef %12, ptr noundef %6) #23
  store double %13, ptr %7, align 8, !tbaa !7
  call void @llvm.lifetime.start.p0(i64 4, ptr %8) #23
  %14 = load double, ptr %7, align 8, !tbaa !7
  %15 = fcmp oeq double %14, 5.000000e-01
  %16 = zext i1 %15 to i32
  store i32 %16, ptr %8, align 4, !tbaa !11
  %17 = load i32, ptr %8, align 4, !tbaa !11
  %18 = icmp ne i32 %17, 0
  br i1 %18, label %22, label %19

19:                                               ; preds = %2
  %20 = load double, ptr %7, align 8, !tbaa !7
  %21 = fcmp oeq double %20, -5.000000e-01
  br i1 %21, label %22, label %40

22:                                               ; preds = %19, %2
  %23 = load double, ptr %6, align 8, !tbaa !7
  %24 = fdiv double %23, 2.000000e+00
  %25 = call double @modf(double noundef %24, ptr noundef %6) #23
  %26 = load double, ptr %7, align 8, !tbaa !7
  %27 = fcmp une double %25, %26
  %28 = zext i1 %27 to i32
  %29 = load i32, ptr %8, align 4, !tbaa !11
  %30 = xor i32 %28, %29
  %31 = icmp ne i32 %30, 0
  br i1 %31, label %32, label %35

32:                                               ; preds = %22
  %33 = load double, ptr %4, align 8, !tbaa !7
  %34 = fneg double %33
  store double %34, ptr %4, align 8, !tbaa !7
  br label %35

35:                                               ; preds = %32, %22
  %36 = call i64 @rb_float_new_inline(double noundef 0.000000e+00)
  %37 = load double, ptr %4, align 8, !tbaa !7
  %38 = call i64 @rb_float_new_inline(double noundef %37)
  %39 = call i64 @rb_complex_new(i64 noundef %36, i64 noundef %38)
  store i64 %39, ptr %3, align 8
  store i32 1, ptr %9, align 4
  br label %70

40:                                               ; preds = %19
  %41 = load double, ptr %7, align 8, !tbaa !7
  %42 = fcmp oeq double %41, 0.000000e+00
  br i1 %42, label %43, label %54

43:                                               ; preds = %40
  %44 = load double, ptr %6, align 8, !tbaa !7
  %45 = fdiv double %44, 2.000000e+00
  %46 = call double @modf(double noundef %45, ptr noundef %6) #23
  %47 = fcmp une double %46, 0.000000e+00
  br i1 %47, label %48, label %51

48:                                               ; preds = %43
  %49 = load double, ptr %4, align 8, !tbaa !7
  %50 = fneg double %49
  store double %50, ptr %4, align 8, !tbaa !7
  br label %51

51:                                               ; preds = %48, %43
  %52 = load double, ptr %4, align 8, !tbaa !7
  %53 = call i64 @rb_float_new_inline(double noundef %52)
  store i64 %53, ptr %3, align 8
  store i32 1, ptr %9, align 4
  br label %70

54:                                               ; preds = %40
  call void @llvm.lifetime.start.p0(i64 8, ptr %10) #23
  %55 = load double, ptr %4, align 8, !tbaa !7
  %56 = load double, ptr %5, align 8, !tbaa !7
  %57 = fmul double %56, 0x400921FB54442D18
  %58 = call double @cos(double noundef %57) #23, !tbaa !11
  %59 = fmul double %55, %58
  store double %59, ptr %10, align 8, !tbaa !7
  call void @llvm.lifetime.start.p0(i64 8, ptr %11) #23
  %60 = load double, ptr %4, align 8, !tbaa !7
  %61 = load double, ptr %5, align 8, !tbaa !7
  %62 = fmul double %61, 0x400921FB54442D18
  %63 = call double @sin(double noundef %62) #23, !tbaa !11
  %64 = fmul double %60, %63
  store double %64, ptr %11, align 8, !tbaa !7
  %65 = load double, ptr %10, align 8, !tbaa !7
  %66 = call i64 @rb_float_new_inline(double noundef %65)
  %67 = load double, ptr %11, align 8, !tbaa !7
  %68 = call i64 @rb_float_new_inline(double noundef %67)
  %69 = call i64 @rb_complex_new(i64 noundef %66, i64 noundef %68)
  store i64 %69, ptr %3, align 8
  store i32 1, ptr %9, align 4
  call void @llvm.lifetime.end.p0(i64 8, ptr %11) #23
  call void @llvm.lifetime.end.p0(i64 8, ptr %10) #23
  br label %70

70:                                               ; preds = %54, %51, %35
  call void @llvm.lifetime.end.p0(i64 4, ptr %8) #23
  call void @llvm.lifetime.end.p0(i64 8, ptr %7) #23
  call void @llvm.lifetime.end.p0(i64 8, ptr %6) #23
  %71 = load i64, ptr %3, align 8
  ret i64 %71
}