; Function Attrs: nounwind sspstrong uwtable
define hidden i64 @rb_dbl_complex_new_polar_pi(double noundef %0, double noundef %1) local_unnamed_addr #0 {
  %3 = alloca double, align 8
  call void @llvm.lifetime.start.p0(i64 8, ptr nonnull %3) #17
  %4 = call double @modf(double noundef %1, ptr noundef nonnull %3) #17
  %5 = fcmp oeq double %4, 5.000000e-01
  %6 = fcmp oeq double %4, -5.000000e-01
  %or.cond = or i1 %5, %6
  br i1 %or.cond, label %7, label %30

7:                                                ; preds = %2
  %8 = load double, ptr %3, align 8, !tbaa !7
  %9 = fmul double %8, 5.000000e-01
  %10 = call double @modf(double noundef %9, ptr noundef nonnull %3) #17
  %11 = fcmp une double %10, %4
  %12 = xor i1 %5, %11
  %13 = fneg double %0
  %.018 = select i1 %12, double %13, double %0
  %14 = bitcast double %.018 to i64
  %cond.i = icmp eq i64 %14, 3458764513820540928
  br i1 %cond.i, label %26, label %15

15:                                               ; preds = %7
  %16 = lshr i64 %14, 60
  %17 = trunc nuw nsw i64 %16 to i32
  %18 = and i32 %17, 7
  %19 = add nsw i32 %18, -3
  %.not7.i = icmp ult i32 %19, 2
  br i1 %.not7.i, label %20, label %24

20:                                               ; preds = %15
  %21 = tail call noundef i64 @llvm.fshl.i64(i64 range(i64 3458764513820540929, 3458764513820540928) %14, i64 range(i64 3458764513820540929, 3458764513820540928) %14, i64 3)
  %22 = and i64 %21, -4
  %23 = or disjoint i64 %22, 2
  br label %rb_float_new_inline.exit

24:                                               ; preds = %15
  %25 = icmp eq i64 %14, 0
  br i1 %25, label %rb_float_new_inline.exit, label %26

26:                                               ; preds = %24, %7
  %27 = tail call i64 @rb_float_new_in_heap(double noundef %.018) #17
  br label %rb_float_new_inline.exit

rb_float_new_inline.exit:                         ; preds = %20, %24, %26
  %.0.i = phi i64 [ %27, %26 ], [ %23, %20 ], [ -9223372036854775806, %24 ]
  %28 = load i64, ptr @rb_cComplex, align 8, !tbaa !11
  %29 = tail call fastcc noundef i64 @nucomp_s_canonicalize_internal(i64 noundef %28, i64 noundef -9223372036854775806, i64 noundef %.0.i)
  br label %rb_float_new_inline.exit23

30:                                               ; preds = %2
  %31 = fcmp oeq double %4, 0.000000e+00
  br i1 %31, label %32, label %52

32:                                               ; preds = %30
  %33 = load double, ptr %3, align 8, !tbaa !7
  %34 = fmul double %33, 5.000000e-01
  %35 = call double @modf(double noundef %34, ptr noundef nonnull %3) #17
  %36 = fcmp une double %35, 0.000000e+00
  %37 = fneg double %0
  %.1 = select i1 %36, double %37, double %0
  %38 = bitcast double %.1 to i64
  %cond.i20 = icmp eq i64 %38, 3458764513820540928
  br i1 %cond.i20, label %50, label %39

39:                                               ; preds = %32
  %40 = lshr i64 %38, 60
  %41 = trunc nuw nsw i64 %40 to i32
  %42 = and i32 %41, 7
  %43 = add nsw i32 %42, -3
  %.not7.i21 = icmp ult i32 %43, 2
  br i1 %.not7.i21, label %44, label %48

44:                                               ; preds = %39
  %45 = tail call noundef i64 @llvm.fshl.i64(i64 range(i64 3458764513820540929, 3458764513820540928) %38, i64 range(i64 3458764513820540929, 3458764513820540928) %38, i64 3)
  %46 = and i64 %45, -4
  %47 = or disjoint i64 %46, 2
  br label %rb_float_new_inline.exit23

48:                                               ; preds = %39
  %49 = icmp eq i64 %38, 0
  br i1 %49, label %rb_float_new_inline.exit23, label %50

50:                                               ; preds = %48, %32
  %51 = tail call i64 @rb_float_new_in_heap(double noundef %.1) #17
  br label %rb_float_new_inline.exit23

52:                                               ; preds = %30
  %53 = fmul double %1, 0x400921FB54442D18
  %54 = tail call double @cos(double noundef %53) #17, !tbaa !13
  %55 = fmul double %0, %54
  %56 = tail call double @sin(double noundef %53) #17, !tbaa !13
  %57 = fmul double %0, %56
  %58 = bitcast double %55 to i64
  %cond.i24 = icmp eq i64 %58, 3458764513820540928
  br i1 %cond.i24, label %70, label %59

59:                                               ; preds = %52
  %60 = lshr i64 %58, 60
  %61 = trunc nuw nsw i64 %60 to i32
  %62 = and i32 %61, 7
  %63 = add nsw i32 %62, -3
  %.not7.i25 = icmp ult i32 %63, 2
  br i1 %.not7.i25, label %64, label %68

64:                                               ; preds = %59
  %65 = tail call noundef i64 @llvm.fshl.i64(i64 range(i64 3458764513820540929, 3458764513820540928) %58, i64 range(i64 3458764513820540929, 3458764513820540928) %58, i64 3)
  %66 = and i64 %65, -4
  %67 = or disjoint i64 %66, 2
  br label %rb_float_new_inline.exit27

68:                                               ; preds = %59
  %69 = icmp eq i64 %58, 0
  br i1 %69, label %rb_float_new_inline.exit27, label %70

70:                                               ; preds = %68, %52
  %71 = tail call i64 @rb_float_new_in_heap(double noundef %55) #17
  br label %rb_float_new_inline.exit27

rb_float_new_inline.exit27:                       ; preds = %64, %68, %70
  %.0.i26 = phi i64 [ %71, %70 ], [ %67, %64 ], [ -9223372036854775806, %68 ]
  %72 = bitcast double %57 to i64
  %cond.i28 = icmp eq i64 %72, 3458764513820540928
  br i1 %cond.i28, label %84, label %73

73:                                               ; preds = %rb_float_new_inline.exit27
  %74 = lshr i64 %72, 60
  %75 = trunc nuw nsw i64 %74 to i32
  %76 = and i32 %75, 7
  %77 = add nsw i32 %76, -3
  %.not7.i29 = icmp ult i32 %77, 2
  br i1 %.not7.i29, label %78, label %82

78:                                               ; preds = %73
  %79 = tail call noundef i64 @llvm.fshl.i64(i64 range(i64 3458764513820540929, 3458764513820540928) %72, i64 range(i64 3458764513820540929, 3458764513820540928) %72, i64 3)
  %80 = and i64 %79, -4
  %81 = or disjoint i64 %80, 2
  br label %rb_float_new_inline.exit31

82:                                               ; preds = %73
  %83 = icmp eq i64 %72, 0
  br i1 %83, label %rb_float_new_inline.exit31, label %84

84:                                               ; preds = %82, %rb_float_new_inline.exit27
  %85 = tail call i64 @rb_float_new_in_heap(double noundef %57) #17
  br label %rb_float_new_inline.exit31

rb_float_new_inline.exit31:                       ; preds = %78, %82, %84
  %.0.i30 = phi i64 [ %85, %84 ], [ %81, %78 ], [ -9223372036854775806, %82 ]
  %86 = load i64, ptr @rb_cComplex, align 8, !tbaa !11
  %87 = tail call fastcc noundef i64 @nucomp_s_canonicalize_internal(i64 noundef %86, i64 noundef %.0.i26, i64 noundef %.0.i30)
  br label %rb_float_new_inline.exit23

rb_float_new_inline.exit23:                       ; preds = %50, %48, %44, %rb_float_new_inline.exit31, %rb_float_new_inline.exit
  %.0 = phi i64 [ %29, %rb_float_new_inline.exit ], [ %87, %rb_float_new_inline.exit31 ], [ %51, %50 ], [ %47, %44 ], [ -9223372036854775806, %48 ]
  call void @llvm.lifetime.end.p0(i64 8, ptr nonnull %3) #17
  ret i64 %.0
}